target datalayout = "e-m:e-p270:32:32-p271:32:32-p272:64:64-i64:64-i128:128-f80:128-n8:16:32:64-S128"
target triple = "x86_64-pc-linux-gnu"

%struct.hb_ot_shape_normalize_context_t = type { ptr, ptr, ptr, ptr, i32, ptr, ptr }
%struct.hb_object_header_t = type { %struct.hb_reference_count_t, %struct.hb_atomic_int_t, %struct.hb_atomic_ptr_t }
%struct.hb_reference_count_t = type { %struct.hb_atomic_int_t }
%struct.hb_atomic_int_t = type { i32 }
%struct.hb_atomic_ptr_t = type { ptr }
%struct.hb_unicode_funcs_t = type { %struct.hb_object_header_t, ptr, %struct.anon.65, %struct.anon.66, %struct.anon.67 }
%struct.anon.65 = type { ptr, ptr, ptr, ptr, ptr, ptr, ptr, ptr }
%struct.anon.66 = type { ptr, ptr, ptr, ptr, ptr, ptr, ptr, ptr }
%struct.anon.67 = type { ptr, ptr, ptr, ptr, ptr, ptr, ptr, ptr }

; Function Attrs: mustprogress uwtable
define linkonce_odr hidden noundef i32 @_ZN18hb_unicode_funcs_t7composeEjjPj(ptr noundef nonnull align 8 dereferenceable(216) %0, i32 noundef %1, i32 noundef %2, ptr noundef %3) #0 comdat align 2 {
  %5 = alloca i32, align 4
  %6 = alloca ptr, align 8
  %7 = alloca i32, align 4
  %8 = alloca i32, align 4
  %9 = alloca ptr, align 8
  store ptr %0, ptr %6, align 8
  store i32 %1, ptr %7, align 4
  store i32 %2, ptr %8, align 4
  store ptr %3, ptr %9, align 8
  %10 = load ptr, ptr %6, align 8
  %11 = load ptr, ptr %9, align 8
  store i32 0, ptr %11, align 4
  %12 = load i32, ptr %7, align 4
  %13 = icmp ne i32 %12, 0
  br i1 %13, label %14, label %17

14:                                               ; preds = %4
  %15 = load i32, ptr %8, align 4
  %16 = icmp ne i32 %15, 0
  br i1 %16, label %18, label %17

17:                                               ; preds = %14, %4
  store i32 0, ptr %5, align 4
  br label %29

18:                                               ; preds = %14
  %19 = getelementptr inbounds %struct.hb_unicode_funcs_t, ptr %10, i32 0, i32 2
  %20 = getelementptr inbounds %struct.anon.65, ptr %19, i32 0, i32 5
  %21 = load ptr, ptr %20, align 8
  %22 = load i32, ptr %7, align 4
  %23 = load i32, ptr %8, align 4
  %24 = load ptr, ptr %9, align 8
  %25 = getelementptr inbounds %struct.hb_unicode_funcs_t, ptr %10, i32 0, i32 3
  %26 = getelementptr inbounds %struct.anon.66, ptr %25, i32 0, i32 5
  %27 = load ptr, ptr %26, align 8
  %28 = call noundef i32 %21(ptr noundef %10, i32 noundef %22, i32 noundef %23, ptr noundef %24, ptr noundef %27)
  store i32 %28, ptr %5, align 4
  br label %29

29:                                               ; preds = %18, %17
  %30 = load i32, ptr %5, align 4
  ret i32 %30
}

; Function Attrs: mustprogress uwtable
define linkonce_odr hidden noundef i32 @_ZN18hb_unicode_funcs_t16general_categoryEj(ptr noundef nonnull align 8 dereferenceable(216) %0, i32 noundef %1) #0 comdat align 2 {
  %3 = alloca ptr, align 8
  %4 = alloca i32, align 4
  store ptr %0, ptr %3, align 8
  store i32 %1, ptr %4, align 4
  %5 = load ptr, ptr %3, align 8
  %6 = getelementptr inbounds %struct.hb_unicode_funcs_t, ptr %5, i32 0, i32 2
  %7 = getelementptr inbounds %struct.anon.65, ptr %6, i32 0, i32 2
  %8 = load ptr, ptr %7, align 8
  %9 = load i32, ptr %4, align 4
  %10 = getelementptr inbounds %struct.hb_unicode_funcs_t, ptr %5, i32 0, i32 3
  %11 = getelementptr inbounds %struct.anon.66, ptr %10, i32 0, i32 2
  %12 = load ptr, ptr %11, align 8
  %13 = call noundef i32 %8(ptr noundef %5, i32 noundef %9, ptr noundef %12)
  ret i32 %13
}

; Function Attrs: mustprogress uwtable
define internal noundef zeroext i1 @_ZL11compose_usePK31hb_ot_shape_normalize_context_tjjPj(ptr noundef %0, i32 noundef %1, i32 noundef %2, ptr noundef %3) #0 {
  %5 = alloca i1, align 1
  %6 = alloca ptr, align 8
  %7 = alloca i32, align 4
  %8 = alloca i32, align 4
  %9 = alloca ptr, align 8
  store ptr %0, ptr %6, align 8
  store i32 %1, ptr %7, align 4
  store i32 %2, ptr %8, align 4
  store ptr %3, ptr %9, align 8
  %10 = load ptr, ptr %6, align 8
  %11 = getelementptr inbounds %struct.hb_ot_shape_normalize_context_t, ptr %10, i32 0, i32 3
  %12 = load ptr, ptr %11, align 8
  %13 = load i32, ptr %7, align 4
  %14 = call noundef i32 @_ZN18hb_unicode_funcs_t16general_categoryEj(ptr noundef nonnull align 8 dereferenceable(216) %12, i32 noundef %13)
  %15 = icmp ult i32 %14, 32
  br i1 %15, label %16, label %23

16:                                               ; preds = %4
  %17 = load ptr, ptr %6, align 8
  %18 = getelementptr inbounds %struct.hb_ot_shape_normalize_context_t, ptr %17, i32 0, i32 3
  %19 = load ptr, ptr %18, align 8
  %20 = load i32, ptr %7, align 4
  %21 = call noundef i32 @_ZN18hb_unicode_funcs_t16general_categoryEj(ptr noundef nonnull align 8 dereferenceable(216) %19, i32 noundef %20)
  %22 = shl i32 1, %21
  br label %24

23:                                               ; preds = %4
  br label %24

24:                                               ; preds = %23, %16
  %25 = phi i32 [ %22, %16 ], [ 0, %23 ]
  %26 = and i32 %25, 7168
  %27 = icmp ne i32 %26, 0
  br i1 %27, label %28, label %29

28:                                               ; preds = %24
  store i1 false, ptr %5, align 1
  br label %38

29:                                               ; preds = %24
  %30 = load ptr, ptr %6, align 8
  %31 = getelementptr inbounds %struct.hb_ot_shape_normalize_context_t, ptr %30, i32 0, i32 3
  %32 = load ptr, ptr %31, align 8
  %33 = load i32, ptr %7, align 4
  %34 = load i32, ptr %8, align 4
  %35 = load ptr, ptr %9, align 8
  %36 = call noundef i32 @_ZN18hb_unicode_funcs_t7composeEjjPj(ptr noundef nonnull align 8 dereferenceable(216) %32, i32 noundef %33, i32 noundef %34, ptr noundef %35)
  %37 = icmp ne i32 %36, 0
  store i1 %37, ptr %5, align 1
  br label %38

38:                                               ; preds = %29, %28
  %39 = load i1, ptr %5, align 1
  ret i1 %39
}